target datalayout = "e-m:e-p270:32:32-p271:32:32-p272:64:64-i64:64-i128:128-f80:128-n8:16:32:64-S128"
target triple = "x86_64-pc-linux-gnu"

%struct.ErrorContextCallback = type { ptr, ptr, ptr }
%struct.TypeName = type { i32, ptr, i32, i8, i8, ptr, i32, ptr, i32 }
%struct.List = type { i32, i32, i32, ptr, [0 x %union.ListCell] }
%union.ListCell = type { ptr }

@.str.1 = private unnamed_addr constant [13 x i8] c"parse_type.c\00", align 1
@.str.10 = private unnamed_addr constant [7 x i8] c" \09\0A\0D\0C\0B\00", align 1
@error_context_stack = external global ptr, align 8
@.str.11 = private unnamed_addr constant [23 x i8] c"invalid type name \22%s\22\00", align 1
@__func__.typeStringToTypeName = private unnamed_addr constant [21 x i8] c"typeStringToTypeName\00", align 1

; Function Attrs: inlinehint nounwind uwtable
define internal ptr @list_nth_cell(ptr noundef %0, i32 noundef %1) #3 {
  %3 = alloca ptr, align 8
  %4 = alloca i32, align 4
  store ptr %0, ptr %3, align 8
  store i32 %1, ptr %4, align 4
  %5 = load ptr, ptr %3, align 8
  %6 = getelementptr inbounds nuw %struct.List, ptr %5, i32 0, i32 3
  %7 = load ptr, ptr %6, align 8
  %8 = load i32, ptr %4, align 4
  %9 = sext i32 %8 to i64
  %10 = getelementptr inbounds %union.ListCell, ptr %7, i64 %9
  ret ptr %10
}

; Function Attrs: nounwind uwtable
define dso_local ptr @typeStringToTypeName(ptr noundef %0, ptr noundef %1) #0 {
  %3 = alloca ptr, align 8
  %4 = alloca ptr, align 8
  %5 = alloca ptr, align 8
  %6 = alloca ptr, align 8
  %7 = alloca ptr, align 8
  %8 = alloca %struct.ErrorContextCallback, align 8
  %9 = alloca i32, align 4
  %10 = alloca i32, align 4
  %11 = alloca ptr, align 8
  store ptr %0, ptr %4, align 8
  store ptr %1, ptr %5, align 8
  call void @llvm.lifetime.start.p0(i64 8, ptr %6) #7
  call void @llvm.lifetime.start.p0(i64 8, ptr %7) #7
  call void @llvm.lifetime.start.p0(i64 24, ptr %8) #7
  %12 = load ptr, ptr %4, align 8
  %13 = call i64 @strspn(ptr noundef %12, ptr noundef @.str.10) #9
  %14 = load ptr, ptr %4, align 8
  %15 = call i64 @strlen(ptr noundef %14) #9
  %16 = icmp eq i64 %13, %15
  br i1 %16, label %17, label %18

17:                                               ; preds = %2
  br label %41

18:                                               ; preds = %2
  %19 = getelementptr inbounds nuw %struct.ErrorContextCallback, ptr %8, i32 0, i32 1
  store ptr @pts_error_callback, ptr %19, align 8
  br label %20

20:                                               ; preds = %18
  br label %21

21:                                               ; preds = %20
  br label %22

22:                                               ; preds = %21
  store i32 1, ptr %9, align 4
  %23 = load ptr, ptr %4, align 8
  %24 = getelementptr inbounds nuw %struct.ErrorContextCallback, ptr %8, i32 0, i32 2
  store ptr %23, ptr %24, align 8
  %25 = load ptr, ptr @error_context_stack, align 8
  %26 = getelementptr inbounds nuw %struct.ErrorContextCallback, ptr %8, i32 0, i32 0
  store ptr %25, ptr %26, align 8
  store ptr %8, ptr @error_context_stack, align 8
  %27 = load ptr, ptr %4, align 8
  %28 = call ptr @raw_parser(ptr noundef %27, i32 noundef 1)
  store ptr %28, ptr %6, align 8
  %29 = getelementptr inbounds nuw %struct.ErrorContextCallback, ptr %8, i32 0, i32 0
  %30 = load ptr, ptr %29, align 8
  store ptr %30, ptr @error_context_stack, align 8
  %31 = load ptr, ptr %6, align 8
  %32 = call ptr @list_nth_cell(ptr noundef %31, i32 noundef 0)
  %33 = load ptr, ptr %32, align 8
  store ptr %33, ptr %7, align 8
  %34 = load ptr, ptr %7, align 8
  %35 = getelementptr inbounds nuw %struct.TypeName, ptr %34, i32 0, i32 3
  %36 = load i8, ptr %35, align 4, !range !4, !noundef !5
  %37 = trunc i8 %36 to i1
  br i1 %37, label %38, label %39

38:                                               ; preds = %22
  br label %41

39:                                               ; preds = %22
  %40 = load ptr, ptr %7, align 8
  store ptr %40, ptr %3, align 8
  store i32 1, ptr %10, align 4
  br label %57

41:                                               ; preds = %38, %17
  br label %42

42:                                               ; preds = %41
  br label %43

43:                                               ; preds = %42
  call void @llvm.lifetime.start.p0(i64 8, ptr %11) #7
  %44 = load ptr, ptr %5, align 8
  store ptr %44, ptr %11, align 8
  %45 = load ptr, ptr %11, align 8
  %46 = call zeroext i1 @errsave_start(ptr noundef %45, ptr noundef null)
  br i1 %46, label %47, label %52

47:                                               ; preds = %43
  %48 = call i32 @errcode(i32 noundef 16801924)
  %49 = load ptr, ptr %4, align 8
  %50 = call i32 (ptr, ...) @errmsg(ptr noundef @.str.11, ptr noundef %49)
  %51 = load ptr, ptr %11, align 8
  call void @errsave_finish(ptr noundef %51, ptr noundef @.str.1, i32 noundef 773, ptr noundef @__func__.typeStringToTypeName)
  br label %52

52:                                               ; preds = %47, %43
  call void @llvm.lifetime.end.p0(i64 8, ptr %11) #7
  br label %53

53:                                               ; preds = %52
  br label %54

54:                                               ; preds = %53
  store ptr null, ptr %3, align 8
  store i32 1, ptr %10, align 4
  br label %57

55:                                               ; No predecessors!
  br label %56

56:                                               ; preds = %55
  store i32 0, ptr %10, align 4
  br label %57

57:                                               ; preds = %56, %54, %39
  call void @llvm.lifetime.end.p0(i64 24, ptr %8) #7
  call void @llvm.lifetime.end.p0(i64 8, ptr %7) #7
  call void @llvm.lifetime.end.p0(i64 8, ptr %6) #7
  %58 = load i32, ptr %10, align 4
  switch i32 %58, label %61 [
    i32 0, label %59
    i32 1, label %59
  ]

59:                                               ; preds = %57, %57
  %60 = load ptr, ptr %3, align 8
  ret ptr %60

61:                                               ; preds = %57
  unreachable
}