; Function Attrs: nounwind uwtable
define dso_local ptr @typeStringToTypeName(ptr noundef %0, ptr noundef %1) local_unnamed_addr #0 {
  %3 = alloca %struct.ErrorContextCallback, align 8
  call void @llvm.lifetime.start.p0(i64 24, ptr nonnull %3) #7
  %4 = tail call i64 @strspn(ptr noundef %0, ptr noundef nonnull @.str.10) #9
  %5 = tail call i64 @strlen(ptr noundef nonnull dereferenceable(1) %0) #9
  %6 = icmp eq i64 %4, %5
  br i1 %6, label %18, label %7

7:                                                ; preds = %2
  %8 = getelementptr inbounds nuw i8, ptr %3, i64 8
  store ptr @pts_error_callback, ptr %8, align 8
  %9 = getelementptr inbounds nuw i8, ptr %3, i64 16
  store ptr %0, ptr %9, align 8
  %10 = load ptr, ptr @error_context_stack, align 8
  store ptr %10, ptr %3, align 8
  store ptr %3, ptr @error_context_stack, align 8
  %11 = call ptr @raw_parser(ptr noundef nonnull %0, i32 noundef 1) #7
  %12 = load ptr, ptr %3, align 8
  store ptr %12, ptr @error_context_stack, align 8
  %13 = getelementptr i8, ptr %11, i64 16
  %.val = load ptr, ptr %13, align 8
  %14 = load ptr, ptr %.val, align 8
  %15 = getelementptr inbounds nuw i8, ptr %14, i64 20
  %16 = load i8, ptr %15, align 4, !range !4, !noundef !5
  %17 = trunc nuw i8 %16 to i1
  br i1 %17, label %18, label %23

18:                                               ; preds = %7, %2
  %19 = call zeroext i1 @errsave_start(ptr noundef %1, ptr noundef null) #7
  br i1 %19, label %20, label %23

20:                                               ; preds = %18
  %21 = call i32 @errcode(i32 noundef 16801924) #7
  %22 = call i32 (ptr, ...) @errmsg(ptr noundef nonnull @.str.11, ptr noundef nonnull %0) #7
  call void @errsave_finish(ptr noundef %1, ptr noundef nonnull @.str.1, i32 noundef 773, ptr noundef nonnull @__func__.typeStringToTypeName) #7
  br label %23

23:                                               ; preds = %18, %20, %7
  %.0 = phi ptr [ %14, %7 ], [ null, %20 ], [ null, %18 ]
  call void @llvm.lifetime.end.p0(i64 24, ptr nonnull %3) #7
  ret ptr %.0
}